target datalayout = "e-m:e-p270:32:32-p271:32:32-p272:64:64-i64:64-i128:128-f80:128-n8:16:32:64-S128"
target triple = "x86_64-unknown-linux-gnu"

%"class.std::basic_string_view" = type { i64, ptr }
%"class.std::__cxx11::basic_string" = type { %"struct.std::__cxx11::basic_string<char>::_Alloc_hider", i64, %union.anon }
%"struct.std::__cxx11::basic_string<char>::_Alloc_hider" = type { ptr }
%union.anon = type { i64, [8 x i8] }
%"class.grpc_core::RbacFilter" = type { %"class.grpc_core::ChannelFilter", i64, i64, %"struct.grpc_core::EvaluateArgs::PerChannelArgs" }
%"class.grpc_core::ChannelFilter" = type { ptr, %"class.std::shared_ptr" }
%"class.std::shared_ptr" = type { %"class.std::__shared_ptr" }
%"class.std::__shared_ptr" = type { ptr, %"class.std::__shared_count" }
%"class.std::__shared_count" = type { ptr }
%"struct.grpc_core::EvaluateArgs::PerChannelArgs" = type { %"class.std::basic_string_view", %"class.std::basic_string_view", %"class.std::vector", %"class.std::vector", %"class.std::basic_string_view", %"class.std::basic_string_view", %"struct.grpc_core::EvaluateArgs::PerChannelArgs::Address", %"struct.grpc_core::EvaluateArgs::PerChannelArgs::Address" }
%"class.std::vector" = type { %"struct.std::_Vector_base" }
%"struct.std::_Vector_base" = type { %"struct.std::_Vector_base<std::basic_string_view<char>, std::allocator<std::basic_string_view<char>>>::_Vector_impl" }
%"struct.std::_Vector_base<std::basic_string_view<char>, std::allocator<std::basic_string_view<char>>>::_Vector_impl" = type { %"struct.std::_Vector_base<std::basic_string_view<char>, std::allocator<std::basic_string_view<char>>>::_Vector_impl_data" }
%"struct.std::_Vector_base<std::basic_string_view<char>, std::allocator<std::basic_string_view<char>>>::_Vector_impl_data" = type { ptr, ptr, ptr }
%"struct.grpc_core::EvaluateArgs::PerChannelArgs::Address" = type <{ %struct.grpc_resolved_address, [4 x i8], %"class.std::__cxx11::basic_string", i32, [4 x i8] }>
%struct.grpc_resolved_address = type { [128 x i8], i32 }
%"class.grpc_core::SourceLocation" = type <{ ptr, i32, [4 x i8] }>

@.str.8 = private unnamed_addr constant [131 x i8] c"generated/home/dtcxzyw/WorkSpace/Projects/compilers/llvm-opt-benchmark/bench/grpc/grpc/src/core/lib/channel/promise_based_filter.h\00", align 1

; Function Attrs: mustprogress nounwind uwtable
define linkonce_odr void @_ZNSt15__new_allocatorISt17basic_string_viewIcSt11char_traitsIcEEEC2ERKS4_(ptr noundef nonnull align 1 dereferenceable(1) %this, ptr noundef nonnull align 1 dereferenceable(1) %0) unnamed_addr #5 comdat align 2 {
entry:
  %this.addr = alloca ptr, align 8
  %.addr = alloca ptr, align 8
  store ptr %this, ptr %this.addr, align 8
  store ptr %0, ptr %.addr, align 8
  ret void
}

; Function Attrs: mustprogress nounwind uwtable
define linkonce_odr void @_ZNSt12_Vector_baseISt17basic_string_viewIcSt11char_traitsIcEESaIS3_EE17_Vector_impl_dataC2EOS6_(ptr noundef nonnull align 8 dereferenceable(24) %this, ptr noundef nonnull align 8 dereferenceable(24) %__x) unnamed_addr #5 comdat align 2 {
entry:
  %this.addr = alloca ptr, align 8
  %__x.addr = alloca ptr, align 8
  store ptr %this, ptr %this.addr, align 8
  store ptr %__x, ptr %__x.addr, align 8
  %this1 = load ptr, ptr %this.addr, align 8
  %_M_start = getelementptr inbounds %"struct.std::_Vector_base<std::basic_string_view<char>, std::allocator<std::basic_string_view<char>>>::_Vector_impl_data", ptr %this1, i32 0, i32 0
  %0 = load ptr, ptr %__x.addr, align 8
  %_M_start2 = getelementptr inbounds %"struct.std::_Vector_base<std::basic_string_view<char>, std::allocator<std::basic_string_view<char>>>::_Vector_impl_data", ptr %0, i32 0, i32 0
  %1 = load ptr, ptr %_M_start2, align 8
  store ptr %1, ptr %_M_start, align 8
  %_M_finish = getelementptr inbounds %"struct.std::_Vector_base<std::basic_string_view<char>, std::allocator<std::basic_string_view<char>>>::_Vector_impl_data", ptr %this1, i32 0, i32 1
  %2 = load ptr, ptr %__x.addr, align 8
  %_M_finish3 = getelementptr inbounds %"struct.std::_Vector_base<std::basic_string_view<char>, std::allocator<std::basic_string_view<char>>>::_Vector_impl_data", ptr %2, i32 0, i32 1
  %3 = load ptr, ptr %_M_finish3, align 8
  store ptr %3, ptr %_M_finish, align 8
  %_M_end_of_storage = getelementptr inbounds %"struct.std::_Vector_base<std::basic_string_view<char>, std::allocator<std::basic_string_view<char>>>::_Vector_impl_data", ptr %this1, i32 0, i32 2
  %4 = load ptr, ptr %__x.addr, align 8
  %_M_end_of_storage4 = getelementptr inbounds %"struct.std::_Vector_base<std::basic_string_view<char>, std::allocator<std::basic_string_view<char>>>::_Vector_impl_data", ptr %4, i32 0, i32 2
  %5 = load ptr, ptr %_M_end_of_storage4, align 8
  store ptr %5, ptr %_M_end_of_storage, align 8
  %6 = load ptr, ptr %__x.addr, align 8
  %_M_end_of_storage5 = getelementptr inbounds %"struct.std::_Vector_base<std::basic_string_view<char>, std::allocator<std::basic_string_view<char>>>::_Vector_impl_data", ptr %6, i32 0, i32 2
  store ptr null, ptr %_M_end_of_storage5, align 8
  %7 = load ptr, ptr %__x.addr, align 8
  %_M_finish6 = getelementptr inbounds %"struct.std::_Vector_base<std::basic_string_view<char>, std::allocator<std::basic_string_view<char>>>::_Vector_impl_data", ptr %7, i32 0, i32 1
  store ptr null, ptr %_M_finish6, align 8
  %8 = load ptr, ptr %__x.addr, align 8
  %_M_start7 = getelementptr inbounds %"struct.std::_Vector_base<std::basic_string_view<char>, std::allocator<std::basic_string_view<char>>>::_Vector_impl_data", ptr %8, i32 0, i32 0
  store ptr null, ptr %_M_start7, align 8
  ret void
}

; Function Attrs: mustprogress nounwind uwtable
define linkonce_odr void @_ZNSaISt17basic_string_viewIcSt11char_traitsIcEEEC2ERKS3_(ptr noundef nonnull align 1 dereferenceable(1) %this, ptr noundef nonnull align 1 dereferenceable(1) %__a) unnamed_addr #5 comdat align 2 {
entry:
  %this.addr = alloca ptr, align 8
  %__a.addr = alloca ptr, align 8
  store ptr %this, ptr %this.addr, align 8
  store ptr %__a, ptr %__a.addr, align 8
  %this1 = load ptr, ptr %this.addr, align 8
  %0 = load ptr, ptr %__a.addr, align 8
  call void @_ZNSt15__new_allocatorISt17basic_string_viewIcSt11char_traitsIcEEEC2ERKS4_(ptr noundef nonnull align 1 dereferenceable(1) %this1, ptr noundef nonnull align 1 dereferenceable(1) %0) #3
  ret void
}

; Function Attrs: mustprogress nounwind uwtable
define linkonce_odr void @_ZNSt12_Vector_baseISt17basic_string_viewIcSt11char_traitsIcEESaIS3_EE12_Vector_implC2EOS6_(ptr noundef nonnull align 8 dereferenceable(24) %this, ptr noundef nonnull align 8 dereferenceable(24) %__x) unnamed_addr #5 comdat align 2 {
entry:
  %this.addr = alloca ptr, align 8
  %__x.addr = alloca ptr, align 8
  store ptr %this, ptr %this.addr, align 8
  store ptr %__x, ptr %__x.addr, align 8
  %this1 = load ptr, ptr %this.addr, align 8
  %0 = load ptr, ptr %__x.addr, align 8
  call void @_ZNSaISt17basic_string_viewIcSt11char_traitsIcEEEC2ERKS3_(ptr noundef nonnull align 1 dereferenceable(1) %this1, ptr noundef nonnull align 1 dereferenceable(1) %0) #3
  %1 = load ptr, ptr %__x.addr, align 8
  call void @_ZNSt12_Vector_baseISt17basic_string_viewIcSt11char_traitsIcEESaIS3_EE17_Vector_impl_dataC2EOS6_(ptr noundef nonnull align 8 dereferenceable(24) %this1, ptr noundef nonnull align 8 dereferenceable(24) %1) #3
  ret void
}

; Function Attrs: mustprogress nounwind uwtable
define linkonce_odr void @_ZNSt12_Vector_baseISt17basic_string_viewIcSt11char_traitsIcEESaIS3_EEC2EOS5_(ptr noundef nonnull align 8 dereferenceable(24) %this, ptr noundef nonnull align 8 dereferenceable(24) %0) unnamed_addr #5 comdat align 2 {
entry:
  %this.addr = alloca ptr, align 8
  %.addr = alloca ptr, align 8
  store ptr %this, ptr %this.addr, align 8
  store ptr %0, ptr %.addr, align 8
  %this1 = load ptr, ptr %this.addr, align 8
  %_M_impl = getelementptr inbounds %"struct.std::_Vector_base", ptr %this1, i32 0, i32 0
  %1 = load ptr, ptr %.addr, align 8
  %_M_impl2 = getelementptr inbounds %"struct.std::_Vector_base", ptr %1, i32 0, i32 0
  call void @_ZNSt12_Vector_baseISt17basic_string_viewIcSt11char_traitsIcEESaIS3_EE12_Vector_implC2EOS6_(ptr noundef nonnull align 8 dereferenceable(24) %_M_impl, ptr noundef nonnull align 8 dereferenceable(24) %_M_impl2) #3
  ret void
}

; Function Attrs: mustprogress nounwind uwtable
define linkonce_odr void @_ZN9grpc_core12EvaluateArgs14PerChannelArgs7AddressC2EOS2_(ptr noundef nonnull align 8 dereferenceable(172) %this, ptr noundef nonnull align 8 dereferenceable(172) %0) unnamed_addr #5 comdat align 2 {
entry:
  %this.addr = alloca ptr, align 8
  %.addr = alloca ptr, align 8
  store ptr %this, ptr %this.addr, align 8
  store ptr %0, ptr %.addr, align 8
  %this1 = load ptr, ptr %this.addr, align 8
  %address = getelementptr inbounds %"struct.grpc_core::EvaluateArgs::PerChannelArgs::Address", ptr %this1, i32 0, i32 0
  %1 = load ptr, ptr %.addr, align 8
  %address2 = getelementptr inbounds %"struct.grpc_core::EvaluateArgs::PerChannelArgs::Address", ptr %1, i32 0, i32 0
  call void @llvm.memcpy.p0.p0.i64(ptr align 8 %address, ptr align 8 %address2, i64 132, i1 false)
  %address_str = getelementptr inbounds %"struct.grpc_core::EvaluateArgs::PerChannelArgs::Address", ptr %this1, i32 0, i32 2
  %2 = load ptr, ptr %.addr, align 8
  %address_str3 = getelementptr inbounds %"struct.grpc_core::EvaluateArgs::PerChannelArgs::Address", ptr %2, i32 0, i32 2
  call void @_ZNSt7__cxx1112basic_stringIcSt11char_traitsIcESaIcEEC1EOS4_(ptr noundef nonnull align 8 dereferenceable(32) %address_str, ptr noundef nonnull align 8 dereferenceable(32) %address_str3) #3
  %port = getelementptr inbounds %"struct.grpc_core::EvaluateArgs::PerChannelArgs::Address", ptr %this1, i32 0, i32 3
  %3 = load ptr, ptr %.addr, align 8
  %port4 = getelementptr inbounds %"struct.grpc_core::EvaluateArgs::PerChannelArgs::Address", ptr %3, i32 0, i32 3
  %4 = load i32, ptr %port4, align 8
  store i32 %4, ptr %port, align 8
  ret void
}

; Function Attrs: mustprogress nounwind uwtable
define linkonce_odr void @_ZNSt6vectorISt17basic_string_viewIcSt11char_traitsIcEESaIS3_EEC2EOS5_(ptr noundef nonnull align 8 dereferenceable(24) %this, ptr noundef nonnull align 8 dereferenceable(24) %0) unnamed_addr #5 comdat align 2 {
entry:
  %this.addr = alloca ptr, align 8
  %.addr = alloca ptr, align 8
  store ptr %this, ptr %this.addr, align 8
  store ptr %0, ptr %.addr, align 8
  %this1 = load ptr, ptr %this.addr, align 8
  %1 = load ptr, ptr %.addr, align 8
  call void @_ZNSt12_Vector_baseISt17basic_string_viewIcSt11char_traitsIcEESaIS3_EEC2EOS5_(ptr noundef nonnull align 8 dereferenceable(24) %this1, ptr noundef nonnull align 8 dereferenceable(24) %1) #3
  ret void
}

; Function Attrs: mustprogress nounwind uwtable
define linkonce_odr void @_ZN9grpc_core14SourceLocationC2EPKci(ptr noundef nonnull align 8 dereferenceable(12) %this, ptr noundef %file, i32 noundef %line) unnamed_addr #5 comdat align 2 {
entry:
  %this.addr = alloca ptr, align 8
  %file.addr = alloca ptr, align 8
  %line.addr = alloca i32, align 4
  store ptr %this, ptr %this.addr, align 8
  store ptr %file, ptr %file.addr, align 8
  store i32 %line, ptr %line.addr, align 4
  %this1 = load ptr, ptr %this.addr, align 8
  %file_ = getelementptr inbounds %"class.grpc_core::SourceLocation", ptr %this1, i32 0, i32 0
  %0 = load ptr, ptr %file.addr, align 8
  store ptr %0, ptr %file_, align 8
  %line_ = getelementptr inbounds %"class.grpc_core::SourceLocation", ptr %this1, i32 0, i32 1
  %1 = load i32, ptr %line.addr, align 4
  store i32 %1, ptr %line_, align 8
  ret void
}

; Function Attrs: mustprogress nounwind uwtable
define linkonce_odr void @_ZN9grpc_core12EvaluateArgs14PerChannelArgsC2EOS1_(ptr noundef nonnull align 8 dereferenceable(464) %this, ptr noundef nonnull align 8 dereferenceable(464) %0) unnamed_addr #5 comdat align 2 {
entry:
  %this.addr = alloca ptr, align 8
  %.addr = alloca ptr, align 8
  store ptr %this, ptr %this.addr, align 8
  store ptr %0, ptr %.addr, align 8
  %this1 = load ptr, ptr %this.addr, align 8
  %transport_security_type = getelementptr inbounds %"struct.grpc_core::EvaluateArgs::PerChannelArgs", ptr %this1, i32 0, i32 0
  %1 = load ptr, ptr %.addr, align 8
  %transport_security_type2 = getelementptr inbounds %"struct.grpc_core::EvaluateArgs::PerChannelArgs", ptr %1, i32 0, i32 0
  call void @llvm.memcpy.p0.p0.i64(ptr align 8 %transport_security_type, ptr align 8 %transport_security_type2, i64 32, i1 false)
  %uri_sans = getelementptr inbounds %"struct.grpc_core::EvaluateArgs::PerChannelArgs", ptr %this1, i32 0, i32 2
  %2 = load ptr, ptr %.addr, align 8
  %uri_sans3 = getelementptr inbounds %"struct.grpc_core::EvaluateArgs::PerChannelArgs", ptr %2, i32 0, i32 2
  call void @_ZNSt6vectorISt17basic_string_viewIcSt11char_traitsIcEESaIS3_EEC2EOS5_(ptr noundef nonnull align 8 dereferenceable(24) %uri_sans, ptr noundef nonnull align 8 dereferenceable(24) %uri_sans3) #3
  %dns_sans = getelementptr inbounds %"struct.grpc_core::EvaluateArgs::PerChannelArgs", ptr %this1, i32 0, i32 3
  %3 = load ptr, ptr %.addr, align 8
  %dns_sans4 = getelementptr inbounds %"struct.grpc_core::EvaluateArgs::PerChannelArgs", ptr %3, i32 0, i32 3
  call void @_ZNSt6vectorISt17basic_string_viewIcSt11char_traitsIcEESaIS3_EEC2EOS5_(ptr noundef nonnull align 8 dereferenceable(24) %dns_sans, ptr noundef nonnull align 8 dereferenceable(24) %dns_sans4) #3
  %common_name = getelementptr inbounds %"struct.grpc_core::EvaluateArgs::PerChannelArgs", ptr %this1, i32 0, i32 4
  %4 = load ptr, ptr %.addr, align 8
  %common_name5 = getelementptr inbounds %"struct.grpc_core::EvaluateArgs::PerChannelArgs", ptr %4, i32 0, i32 4
  call void @llvm.memcpy.p0.p0.i64(ptr align 8 %common_name, ptr align 8 %common_name5, i64 32, i1 false)
  %local_address = getelementptr inbounds %"struct.grpc_core::EvaluateArgs::PerChannelArgs", ptr %this1, i32 0, i32 6
  %5 = load ptr, ptr %.addr, align 8
  %local_address6 = getelementptr inbounds %"struct.grpc_core::EvaluateArgs::PerChannelArgs", ptr %5, i32 0, i32 6
  call void @_ZN9grpc_core12EvaluateArgs14PerChannelArgs7AddressC2EOS2_(ptr noundef nonnull align 8 dereferenceable(172) %local_address, ptr noundef nonnull align 8 dereferenceable(172) %local_address6) #3
  %peer_address = getelementptr inbounds %"struct.grpc_core::EvaluateArgs::PerChannelArgs", ptr %this1, i32 0, i32 7
  %6 = load ptr, ptr %.addr, align 8
  %peer_address7 = getelementptr inbounds %"struct.grpc_core::EvaluateArgs::PerChannelArgs", ptr %6, i32 0, i32 7
  call void @_ZN9grpc_core12EvaluateArgs14PerChannelArgs7AddressC2EOS2_(ptr noundef nonnull align 8 dereferenceable(172) %peer_address, ptr noundef nonnull align 8 dereferenceable(172) %peer_address7) #3
  ret void
}

; Function Attrs: mustprogress uwtable
define linkonce_odr void @_ZN9grpc_core13ChannelFilterC2Ev(ptr noundef nonnull align 8 dereferenceable(24) %this) unnamed_addr #4 comdat align 2 {
entry:
  %this.addr = alloca ptr, align 8
  %agg.tmp = alloca %"class.grpc_core::SourceLocation", align 8
  store ptr %this, ptr %this.addr, align 8
  %this1 = load ptr, ptr %this.addr, align 8
  store ptr getelementptr inbounds ({ [8 x ptr] }, ptr @_ZTVN9grpc_core13ChannelFilterE, i32 0, i32 0, i32 2), ptr %this1, align 8
  %event_engine_ = getelementptr inbounds %"class.grpc_core::ChannelFilter", ptr %this1, i32 0, i32 1
  call void @_ZN9grpc_core14SourceLocationC2EPKci(ptr noundef nonnull align 8 dereferenceable(12) %agg.tmp, ptr noundef @.str.8, i32 noundef 76)
  %0 = getelementptr inbounds { ptr, i32 }, ptr %agg.tmp, i32 0, i32 0
  %1 = load ptr, ptr %0, align 8
  %2 = getelementptr inbounds { ptr, i32 }, ptr %agg.tmp, i32 0, i32 1
  %3 = load i32, ptr %2, align 8
  call void @_ZN17grpc_event_engine12experimental21GetDefaultEventEngineEN9grpc_core14SourceLocationE(ptr sret(%"class.std::shared_ptr") align 8 %event_engine_, ptr %1, i32 %3)
  ret void
}

; Function Attrs: mustprogress uwtable
define void @_ZN9grpc_core10RbacFilterC2EmNS_12EvaluateArgs14PerChannelArgsE(ptr noundef nonnull align 8 dereferenceable(504) %this, i64 noundef %index, ptr noundef %per_channel_evaluate_args) unnamed_addr #4 align 2 personality ptr @__gxx_personality_v0 {
entry:
  %this.addr = alloca ptr, align 8
  %index.addr = alloca i64, align 8
  %per_channel_evaluate_args.indirect_addr = alloca ptr, align 8
  %exn.slot = alloca ptr, align 8
  %ehselector.slot = alloca i32, align 4
  store ptr %this, ptr %this.addr, align 8
  store i64 %index, ptr %index.addr, align 8
  store ptr %per_channel_evaluate_args, ptr %per_channel_evaluate_args.indirect_addr, align 8
  %this1 = load ptr, ptr %this.addr, align 8
  call void @_ZN9grpc_core13ChannelFilterC2Ev(ptr noundef nonnull align 8 dereferenceable(24) %this1)
  store ptr getelementptr inbounds ({ [8 x ptr] }, ptr @_ZTVN9grpc_core10RbacFilterE, i32 0, i32 0, i32 2), ptr %this1, align 8
  %index_ = getelementptr inbounds %"class.grpc_core::RbacFilter", ptr %this1, i32 0, i32 1
  %0 = load i64, ptr %index.addr, align 8
  store i64 %0, ptr %index_, align 8
  %service_config_parser_index_ = getelementptr inbounds %"class.grpc_core::RbacFilter", ptr %this1, i32 0, i32 2
  %call = invoke noundef i64 @_ZN9grpc_core23RbacServiceConfigParser11ParserIndexEv()
          to label %invoke.cont unwind label %lpad

invoke.cont:                                      ; preds = %entry
  store i64 %call, ptr %service_config_parser_index_, align 8
  %per_channel_evaluate_args_ = getelementptr inbounds %"class.grpc_core::RbacFilter", ptr %this1, i32 0, i32 3
  call void @_ZN9grpc_core12EvaluateArgs14PerChannelArgsC2EOS1_(ptr noundef nonnull align 8 dereferenceable(464) %per_channel_evaluate_args_, ptr noundef nonnull align 8 dereferenceable(464) %per_channel_evaluate_args) #3
  ret void

lpad:                                             ; preds = %entry
  %1 = landingpad { ptr, i32 }
          cleanup
  %2 = extractvalue { ptr, i32 } %1, 0
  store ptr %2, ptr %exn.slot, align 8
  %3 = extractvalue { ptr, i32 } %1, 1
  store i32 %3, ptr %ehselector.slot, align 4
  call void @_ZN9grpc_core13ChannelFilterD2Ev(ptr noundef nonnull align 8 dereferenceable(24) %this1) #3
  br label %eh.resume

eh.resume:                                        ; preds = %lpad
  %exn = load ptr, ptr %exn.slot, align 8
  %sel = load i32, ptr %ehselector.slot, align 4
  %lpad.val = insertvalue { ptr, i32 } poison, ptr %exn, 0
  %lpad.val2 = insertvalue { ptr, i32 } %lpad.val, i32 %sel, 1
  resume { ptr, i32 } %lpad.val2
}