; Function Attrs: mustprogress uwtable
define void @_ZN9grpc_core10RbacFilterC2EmNS_12EvaluateArgs14PerChannelArgsE(ptr noundef nonnull align 8 dereferenceable(504) %this, i64 noundef %index, ptr noundef %per_channel_evaluate_args) unnamed_addr #6 align 2 personality ptr @__gxx_personality_v0 {
entry:
  store ptr getelementptr inbounds ({ [8 x ptr] }, ptr @_ZTVN9grpc_core13ChannelFilterE, i64 0, i32 0, i64 2), ptr %this, align 8
  %event_engine_.i = getelementptr inbounds i8, ptr %this, i64 8
  tail call void @_ZN17grpc_event_engine12experimental21GetDefaultEventEngineEN9grpc_core14SourceLocationE(ptr nonnull sret(%"class.std::shared_ptr") align 8 %event_engine_.i, ptr nonnull @.str.8, i32 76)
  store ptr getelementptr inbounds ({ [8 x ptr] }, ptr @_ZTVN9grpc_core10RbacFilterE, i64 0, i32 0, i64 2), ptr %this, align 8
  %index_ = getelementptr inbounds i8, ptr %this, i64 24
  store i64 %index, ptr %index_, align 8
  %call = invoke noundef i64 @_ZN9grpc_core23RbacServiceConfigParser11ParserIndexEv()
          to label %invoke.cont unwind label %lpad

invoke.cont:                                      ; preds = %entry
  %service_config_parser_index_ = getelementptr inbounds i8, ptr %this, i64 32
  store i64 %call, ptr %service_config_parser_index_, align 8
  %per_channel_evaluate_args_ = getelementptr inbounds i8, ptr %this, i64 40
  tail call void @llvm.memcpy.p0.p0.i64(ptr noundef nonnull align 8 dereferenceable(32) %per_channel_evaluate_args_, ptr noundef nonnull align 8 dereferenceable(32) %per_channel_evaluate_args, i64 32, i1 false)
  %uri_sans.i = getelementptr inbounds i8, ptr %this, i64 72
  %uri_sans3.i = getelementptr inbounds i8, ptr %per_channel_evaluate_args, i64 32
  %0 = load ptr, ptr %uri_sans3.i, align 8
  store ptr %0, ptr %uri_sans.i, align 8
  %_M_finish.i.i.i.i.i = getelementptr inbounds i8, ptr %this, i64 80
  %_M_finish3.i.i.i.i.i = getelementptr inbounds i8, ptr %per_channel_evaluate_args, i64 40
  %1 = load ptr, ptr %_M_finish3.i.i.i.i.i, align 8
  store ptr %1, ptr %_M_finish.i.i.i.i.i, align 8
  %_M_end_of_storage.i.i.i.i.i = getelementptr inbounds i8, ptr %this, i64 88
  %_M_end_of_storage4.i.i.i.i.i = getelementptr inbounds i8, ptr %per_channel_evaluate_args, i64 48
  %2 = load ptr, ptr %_M_end_of_storage4.i.i.i.i.i, align 8
  store ptr %2, ptr %_M_end_of_storage.i.i.i.i.i, align 8
  tail call void @llvm.memset.p0.i64(ptr noundef nonnull align 8 dereferenceable(24) %uri_sans3.i, i8 0, i64 24, i1 false)
  %dns_sans.i = getelementptr inbounds i8, ptr %this, i64 96
  %dns_sans4.i = getelementptr inbounds i8, ptr %per_channel_evaluate_args, i64 56
  %3 = load ptr, ptr %dns_sans4.i, align 8
  store ptr %3, ptr %dns_sans.i, align 8
  %_M_finish.i.i.i.i6.i = getelementptr inbounds i8, ptr %this, i64 104
  %_M_finish3.i.i.i.i7.i = getelementptr inbounds i8, ptr %per_channel_evaluate_args, i64 64
  %4 = load ptr, ptr %_M_finish3.i.i.i.i7.i, align 8
  store ptr %4, ptr %_M_finish.i.i.i.i6.i, align 8
  %_M_end_of_storage.i.i.i.i8.i = getelementptr inbounds i8, ptr %this, i64 112
  %_M_end_of_storage4.i.i.i.i9.i = getelementptr inbounds i8, ptr %per_channel_evaluate_args, i64 72
  %5 = load ptr, ptr %_M_end_of_storage4.i.i.i.i9.i, align 8
  store ptr %5, ptr %_M_end_of_storage.i.i.i.i8.i, align 8
  tail call void @llvm.memset.p0.i64(ptr noundef nonnull align 8 dereferenceable(24) %dns_sans4.i, i8 0, i64 24, i1 false)
  %common_name.i = getelementptr inbounds i8, ptr %this, i64 120
  %common_name5.i = getelementptr inbounds i8, ptr %per_channel_evaluate_args, i64 80
  tail call void @llvm.memcpy.p0.p0.i64(ptr noundef nonnull align 8 dereferenceable(32) %common_name.i, ptr noundef nonnull align 8 dereferenceable(32) %common_name5.i, i64 32, i1 false)
  %local_address.i = getelementptr inbounds i8, ptr %this, i64 152
  %local_address6.i = getelementptr inbounds i8, ptr %per_channel_evaluate_args, i64 112
  tail call void @llvm.memcpy.p0.p0.i64(ptr noundef nonnull align 8 dereferenceable(132) %local_address.i, ptr noundef nonnull align 8 dereferenceable(132) %local_address6.i, i64 132, i1 false)
  %address_str.i.i = getelementptr inbounds i8, ptr %this, i64 288
  %address_str3.i.i = getelementptr inbounds i8, ptr %per_channel_evaluate_args, i64 248
  tail call void @_ZNSt7__cxx1112basic_stringIcSt11char_traitsIcESaIcEEC1EOS4_(ptr noundef nonnull align 8 dereferenceable(32) %address_str.i.i, ptr noundef nonnull align 8 dereferenceable(32) %address_str3.i.i) #19
  %port.i.i = getelementptr inbounds i8, ptr %this, i64 320
  %port4.i.i = getelementptr inbounds i8, ptr %per_channel_evaluate_args, i64 280
  %6 = load i32, ptr %port4.i.i, align 8
  store i32 %6, ptr %port.i.i, align 8
  %peer_address.i = getelementptr inbounds i8, ptr %this, i64 328
  %peer_address7.i = getelementptr inbounds i8, ptr %per_channel_evaluate_args, i64 288
  tail call void @llvm.memcpy.p0.p0.i64(ptr noundef nonnull align 8 dereferenceable(132) %peer_address.i, ptr noundef nonnull align 8 dereferenceable(132) %peer_address7.i, i64 132, i1 false)
  %address_str.i10.i = getelementptr inbounds i8, ptr %this, i64 464
  %address_str3.i11.i = getelementptr inbounds i8, ptr %per_channel_evaluate_args, i64 424
  tail call void @_ZNSt7__cxx1112basic_stringIcSt11char_traitsIcESaIcEEC1EOS4_(ptr noundef nonnull align 8 dereferenceable(32) %address_str.i10.i, ptr noundef nonnull align 8 dereferenceable(32) %address_str3.i11.i) #19
  %port.i12.i = getelementptr inbounds i8, ptr %this, i64 496
  %port4.i13.i = getelementptr inbounds i8, ptr %per_channel_evaluate_args, i64 456
  %7 = load i32, ptr %port4.i13.i, align 8
  store i32 %7, ptr %port.i12.i, align 8
  ret void

lpad:                                             ; preds = %entry
  %8 = landingpad { ptr, i32 }
          cleanup
  tail call void @_ZN9grpc_core13ChannelFilterD2Ev(ptr noundef nonnull align 8 dereferenceable(24) %this) #19
  resume { ptr, i32 } %8
}